#include <math.h>
#include <stdio.h>
#include <stdlib.h>
#include <string.h>

int main()
{
	int a[100],b[100],n,m,i,o,k,u,l;
	int *p;
	scanf("%d %d",&n,&m);
	for(i=0;i<n;i++)
	{
		scanf("%d",&a[i]);
	}
	p=a;
	for(l=0;l<m;l++)
	{
		b[l]=*(p+n-m+l);
	}
	for(o=n-m-1;o>=0;o--)
	{
		*(p+o+m)=*(p+o);
	}
	for(k=0;k<m;k++)
	{
		*(p+k)=b[k];
	}
	printf("%d",a[0]);
	for(u=1;u<n;u++)
	{
		printf(" %d",a[u]);
	}
	return 0;
}

