; ModuleID = '52/6184.c'
source_filename = "52/6184.c"
target datalayout = "e-m:e-p270:32:32-p271:32:32-p272:64:64-i64:64-f80:128-n8:16:32:64-S128"
target triple = "x86_64-pc-linux-gnu"

@.str = private unnamed_addr constant [6 x i8] c"%d %d\00", align 1
@.str.1 = private unnamed_addr constant [3 x i8] c"%d\00", align 1
@.str.2 = private unnamed_addr constant [4 x i8] c" %d\00", align 1

; Function Attrs: noinline nounwind uwtable
define dso_local i32 @main() #0 {
  %1 = alloca i32, align 4
  %2 = alloca [100 x i32], align 16
  %3 = alloca [100 x i32], align 16
  %4 = alloca i32, align 4
  %5 = alloca i32, align 4
  %6 = alloca i32, align 4
  %7 = alloca i32, align 4
  %8 = alloca i32, align 4
  %9 = alloca i32, align 4
  %10 = alloca i32, align 4
  %11 = alloca i32*, align 8
  store i32 0, i32* %1, align 4
  %12 = call i32 (i8*, ...) @__isoc99_scanf(i8* getelementptr inbounds ([6 x i8], [6 x i8]* @.str, i64 0, i64 0), i32* %4, i32* %5)
  store i32 0, i32* %6, align 4
  br label %13

13:                                               ; preds = %22, %0
  %14 = load i32, i32* %6, align 4
  %15 = load i32, i32* %4, align 4
  %16 = icmp slt i32 %14, %15
  br i1 %16, label %17, label %25

17:                                               ; preds = %13
  %18 = load i32, i32* %6, align 4
  %19 = sext i32 %18 to i64
  %20 = getelementptr inbounds [100 x i32], [100 x i32]* %2, i64 0, i64 %19
  %21 = call i32 (i8*, ...) @__isoc99_scanf(i8* getelementptr inbounds ([3 x i8], [3 x i8]* @.str.1, i64 0, i64 0), i32* %20)
  br label %22

22:                                               ; preds = %17
  %23 = load i32, i32* %6, align 4
  %24 = add nsw i32 %23, 1
  store i32 %24, i32* %6, align 4
  br label %13

25:                                               ; preds = %13
  %26 = getelementptr inbounds [100 x i32], [100 x i32]* %2, i64 0, i64 0
  store i32* %26, i32** %11, align 8
  store i32 0, i32* %10, align 4
  br label %27

27:                                               ; preds = %47, %25
  %28 = load i32, i32* %10, align 4
  %29 = load i32, i32* %5, align 4
  %30 = icmp slt i32 %28, %29
  br i1 %30, label %31, label %50

31:                                               ; preds = %27
  %32 = load i32*, i32** %11, align 8
  %33 = load i32, i32* %4, align 4
  %34 = sext i32 %33 to i64
  %35 = getelementptr inbounds i32, i32* %32, i64 %34
  %36 = load i32, i32* %5, align 4
  %37 = sext i32 %36 to i64
  %38 = sub i64 0, %37
  %39 = getelementptr inbounds i32, i32* %35, i64 %38
  %40 = load i32, i32* %10, align 4
  %41 = sext i32 %40 to i64
  %42 = getelementptr inbounds i32, i32* %39, i64 %41
  %43 = load i32, i32* %42, align 4
  %44 = load i32, i32* %10, align 4
  %45 = sext i32 %44 to i64
  %46 = getelementptr inbounds [100 x i32], [100 x i32]* %3, i64 0, i64 %45
  store i32 %43, i32* %46, align 4
  br label %47

47:                                               ; preds = %31
  %48 = load i32, i32* %10, align 4
  %49 = add nsw i32 %48, 1
  store i32 %49, i32* %10, align 4
  br label %27

50:                                               ; preds = %27
  %51 = load i32, i32* %4, align 4
  %52 = load i32, i32* %5, align 4
  %53 = sub nsw i32 %51, %52
  %54 = sub nsw i32 %53, 1
  store i32 %54, i32* %7, align 4
  br label %55

55:                                               ; preds = %71, %50
  %56 = load i32, i32* %7, align 4
  %57 = icmp sge i32 %56, 0
  br i1 %57, label %58, label %74

58:                                               ; preds = %55
  %59 = load i32*, i32** %11, align 8
  %60 = load i32, i32* %7, align 4
  %61 = sext i32 %60 to i64
  %62 = getelementptr inbounds i32, i32* %59, i64 %61
  %63 = load i32, i32* %62, align 4
  %64 = load i32*, i32** %11, align 8
  %65 = load i32, i32* %7, align 4
  %66 = sext i32 %65 to i64
  %67 = getelementptr inbounds i32, i32* %64, i64 %66
  %68 = load i32, i32* %5, align 4
  %69 = sext i32 %68 to i64
  %70 = getelementptr inbounds i32, i32* %67, i64 %69
  store i32 %63, i32* %70, align 4
  br label %71

71:                                               ; preds = %58
  %72 = load i32, i32* %7, align 4
  %73 = add nsw i32 %72, -1
  store i32 %73, i32* %7, align 4
  br label %55

74:                                               ; preds = %55
  store i32 0, i32* %8, align 4
  br label %75

75:                                               ; preds = %88, %74
  %76 = load i32, i32* %8, align 4
  %77 = load i32, i32* %5, align 4
  %78 = icmp slt i32 %76, %77
  br i1 %78, label %79, label %91

79:                                               ; preds = %75
  %80 = load i32, i32* %8, align 4
  %81 = sext i32 %80 to i64
  %82 = getelementptr inbounds [100 x i32], [100 x i32]* %3, i64 0, i64 %81
  %83 = load i32, i32* %82, align 4
  %84 = load i32*, i32** %11, align 8
  %85 = load i32, i32* %8, align 4
  %86 = sext i32 %85 to i64
  %87 = getelementptr inbounds i32, i32* %84, i64 %86
  store i32 %83, i32* %87, align 4
  br label %88

88:                                               ; preds = %79
  %89 = load i32, i32* %8, align 4
  %90 = add nsw i32 %89, 1
  store i32 %90, i32* %8, align 4
  br label %75

91:                                               ; preds = %75
  %92 = getelementptr inbounds [100 x i32], [100 x i32]* %2, i64 0, i64 0
  %93 = load i32, i32* %92, align 16
  %94 = call i32 (i8*, ...) @printf(i8* getelementptr inbounds ([3 x i8], [3 x i8]* @.str.1, i64 0, i64 0), i32 %93)
  store i32 1, i32* %9, align 4
  br label %95

95:                                               ; preds = %105, %91
  %96 = load i32, i32* %9, align 4
  %97 = load i32, i32* %4, align 4
  %98 = icmp slt i32 %96, %97
  br i1 %98, label %99, label %108

99:                                               ; preds = %95
  %100 = load i32, i32* %9, align 4
  %101 = sext i32 %100 to i64
  %102 = getelementptr inbounds [100 x i32], [100 x i32]* %2, i64 0, i64 %101
  %103 = load i32, i32* %102, align 4
  %104 = call i32 (i8*, ...) @printf(i8* getelementptr inbounds ([4 x i8], [4 x i8]* @.str.2, i64 0, i64 0), i32 %103)
  br label %105

105:                                              ; preds = %99
  %106 = load i32, i32* %9, align 4
  %107 = add nsw i32 %106, 1
  store i32 %107, i32* %9, align 4
  br label %95

108:                                              ; preds = %95
  ret i32 0
}

declare dso_local i32 @__isoc99_scanf(i8*, ...) #1

declare dso_local i32 @printf(i8*, ...) #1


!llvm.module.flags = !{!0}
!llvm.ident = !{!1}

!0 = !{i32 1, !"wchar_size", i32 4}
!1 = !{!"clang version 10.0.0-4ubuntu1 "}
